; Function Attrs: mustprogress nofree norecurse nosync nounwind willreturn memory(argmem: write) uwtable
define hidden void @_ZN19OpenColorIO_v2_5dev12RenderParams9setOffsetEfff(ptr noundef nonnull writeonly align 4 captures(none) dereferenceable(54) initializes((16, 32)) %0, float noundef %1, float noundef %2, float noundef %3) local_unnamed_addr #3 align 2 {
  %5 = getelementptr inbounds nuw i8, ptr %0, i64 16
  store float %1, ptr %5, align 4, !tbaa !10
  %6 = getelementptr inbounds nuw i8, ptr %0, i64 20
  store float %2, ptr %6, align 4, !tbaa !10
  %7 = getelementptr inbounds nuw i8, ptr %0, i64 24
  store float %3, ptr %7, align 4, !tbaa !10
  %8 = getelementptr inbounds nuw i8, ptr %0, i64 28
  store float 0.000000e+00, ptr %8, align 4, !tbaa !10
  ret void
}